target datalayout = "e-m:e-p270:32:32-p271:32:32-p272:64:64-i64:64-i128:128-f80:128-n8:16:32:64-S128"
target triple = "x86_64-unknown-linux-gnu"

%"class.std::set.0" = type { %"class.std::_Rb_tree.1" }
%"class.std::_Rb_tree.1" = type { %"struct.std::_Rb_tree<QuantLib::Observer *, QuantLib::Observer *, std::_Identity<QuantLib::Observer *>, std::less<QuantLib::Observer *>>::_Rb_tree_impl" }
%"struct.std::_Rb_tree<QuantLib::Observer *, QuantLib::Observer *, std::_Identity<QuantLib::Observer *>, std::less<QuantLib::Observer *>>::_Rb_tree_impl" = type { [8 x i8], %"struct.std::_Rb_tree_header" }
%"struct.std::_Rb_tree_header" = type { %"struct.std::_Rb_tree_node_base", i64 }
%"struct.std::_Rb_tree_node_base" = type { i32, ptr, ptr, ptr }
%"class.std::set" = type { %"class.std::_Rb_tree" }
%"class.std::_Rb_tree" = type { %"struct.std::_Rb_tree<boost::shared_ptr<QuantLib::Observable>, boost::shared_ptr<QuantLib::Observable>, std::_Identity<boost::shared_ptr<QuantLib::Observable>>, std::less<boost::shared_ptr<QuantLib::Observable>>>::_Rb_tree_impl" }
%"struct.std::_Rb_tree<boost::shared_ptr<QuantLib::Observable>, boost::shared_ptr<QuantLib::Observable>, std::_Identity<boost::shared_ptr<QuantLib::Observable>>, std::less<boost::shared_ptr<QuantLib::Observable>>>::_Rb_tree_impl" = type { [8 x i8], %"struct.std::_Rb_tree_header" }
%"class.boost::detail::shared_count" = type { ptr }
%"class.QuantLib::Observable" = type { ptr, %"class.std::set.0" }
%"class.QuantLib::DayCounter" = type { %"class.boost::shared_ptr.21" }
%"class.boost::shared_ptr.21" = type { ptr, %"class.boost::detail::shared_count" }
%"class.QuantLib::SviSmileSection" = type { %"class.QuantLib::SmileSection.base", double, %"class.std::vector", %"class.QuantLib::Observable", %"class.QuantLib::Observer" }
%"class.QuantLib::SmileSection.base" = type { ptr, i8, %"class.QuantLib::Date", %"class.QuantLib::Date", %"class.QuantLib::DayCounter", double, i32, double }
%"class.QuantLib::Date" = type { i64 }
%"class.std::vector" = type { %"struct.std::_Vector_base" }
%"struct.std::_Vector_base" = type { %"struct.std::_Vector_base<double, std::allocator<double>>::_Vector_impl" }
%"struct.std::_Vector_base<double, std::allocator<double>>::_Vector_impl" = type { %"struct.std::_Vector_base<double, std::allocator<double>>::_Vector_impl_data" }
%"struct.std::_Vector_base<double, std::allocator<double>>::_Vector_impl_data" = type { ptr, ptr, ptr }
%"class.QuantLib::Observer" = type { ptr, %"class.std::set" }

; Function Attrs: inlinehint mustprogress nounwind uwtable
define linkonce_odr noundef double @_ZN8QuantLib6detail16sviTotalVarianceEdddddd(double noundef %a, double noundef %b, double noundef %sigma, double noundef %rho, double noundef %m, double noundef %k) #5 comdat {
entry:
  %a.addr = alloca double, align 8
  %b.addr = alloca double, align 8
  %sigma.addr = alloca double, align 8
  %rho.addr = alloca double, align 8
  %m.addr = alloca double, align 8
  %k.addr = alloca double, align 8
  store double %a, ptr %a.addr, align 8, !tbaa !14
  store double %b, ptr %b.addr, align 8, !tbaa !14
  store double %sigma, ptr %sigma.addr, align 8, !tbaa !14
  store double %rho, ptr %rho.addr, align 8, !tbaa !14
  store double %m, ptr %m.addr, align 8, !tbaa !14
  store double %k, ptr %k.addr, align 8, !tbaa !14
  %0 = load double, ptr %a.addr, align 8, !tbaa !14
  %1 = load double, ptr %b.addr, align 8, !tbaa !14
  %2 = load double, ptr %rho.addr, align 8, !tbaa !14
  %3 = load double, ptr %k.addr, align 8, !tbaa !14
  %4 = load double, ptr %m.addr, align 8, !tbaa !14
  %sub = fsub double %3, %4
  %5 = load double, ptr %k.addr, align 8, !tbaa !14
  %6 = load double, ptr %m.addr, align 8, !tbaa !14
  %sub1 = fsub double %5, %6
  %7 = load double, ptr %k.addr, align 8, !tbaa !14
  %8 = load double, ptr %m.addr, align 8, !tbaa !14
  %sub2 = fsub double %7, %8
  %9 = load double, ptr %sigma.addr, align 8, !tbaa !14
  %10 = load double, ptr %sigma.addr, align 8, !tbaa !14
  %mul4 = fmul double %9, %10
  %11 = call double @llvm.fmuladd.f64(double %sub1, double %sub2, double %mul4)
  %call = call double @sqrt(double noundef %11) #13, !tbaa !32
  %12 = call double @llvm.fmuladd.f64(double %2, double %sub, double %call)
  %13 = call double @llvm.fmuladd.f64(double %1, double %12, double %0)
  ret double %13
}

; Function Attrs: mustprogress nounwind uwtable
define linkonce_odr noundef nonnull align 8 dereferenceable(8) ptr @_ZNKSt6vectorIdSaIdEEixEm(ptr noundef nonnull align 8 dereferenceable(24) %this, i64 noundef %__n) #1 comdat align 2 {
entry:
  %this.addr = alloca ptr, align 8
  %__n.addr = alloca i64, align 8
  store ptr %this, ptr %this.addr, align 8, !tbaa !3
  store i64 %__n, ptr %__n.addr, align 8, !tbaa !31
  %this1 = load ptr, ptr %this.addr, align 8
  %_M_impl = getelementptr inbounds nuw %"struct.std::_Vector_base", ptr %this1, i32 0, i32 0
  %_M_start = getelementptr inbounds nuw %"struct.std::_Vector_base<double, std::allocator<double>>::_Vector_impl_data", ptr %_M_impl, i32 0, i32 0
  %0 = load ptr, ptr %_M_start, align 8, !tbaa !29
  %1 = load i64, ptr %__n.addr, align 8, !tbaa !31
  %add.ptr = getelementptr inbounds nuw double, ptr %0, i64 %1
  ret ptr %add.ptr
}

; Function Attrs: inlinehint mustprogress nounwind uwtable
define linkonce_odr noundef nonnull align 8 dereferenceable(8) ptr @_ZSt3maxIdERKT_S2_S2_(ptr noundef nonnull align 8 dereferenceable(8) %__a, ptr noundef nonnull align 8 dereferenceable(8) %__b) #5 comdat {
entry:
  %retval = alloca ptr, align 8
  %__a.addr = alloca ptr, align 8
  %__b.addr = alloca ptr, align 8
  store ptr %__a, ptr %__a.addr, align 8, !tbaa !3
  store ptr %__b, ptr %__b.addr, align 8, !tbaa !3
  %0 = load ptr, ptr %__a.addr, align 8, !tbaa !3
  %1 = load double, ptr %0, align 8, !tbaa !14
  %2 = load ptr, ptr %__b.addr, align 8, !tbaa !3
  %3 = load double, ptr %2, align 8, !tbaa !14
  %cmp = fcmp olt double %1, %3
  br i1 %cmp, label %if.then, label %if.end

if.then:                                          ; preds = %entry
  %4 = load ptr, ptr %__b.addr, align 8, !tbaa !3
  store ptr %4, ptr %retval, align 8
  br label %return

if.end:                                           ; preds = %entry
  %5 = load ptr, ptr %__a.addr, align 8, !tbaa !3
  store ptr %5, ptr %retval, align 8
  br label %return

return:                                           ; preds = %if.end, %if.then
  %6 = load ptr, ptr %retval, align 8
  ret ptr %6
}

; Function Attrs: mustprogress uwtable
define noundef double @_ZNK8QuantLib15SviSmileSection14volatilityImplEd(ptr noundef nonnull align 8 dereferenceable(104) %this, double noundef %strike) unnamed_addr #2 align 2 {
entry:
  %this.addr = alloca ptr, align 8
  %strike.addr = alloca double, align 8
  %k = alloca double, align 8
  %ref.tmp = alloca double, align 8
  %totalVariance = alloca double, align 8
  %ref.tmp13 = alloca double, align 8
  %ref.tmp14 = alloca double, align 8
  store ptr %this, ptr %this.addr, align 8, !tbaa !3
  store double %strike, ptr %strike.addr, align 8, !tbaa !14
  %this1 = load ptr, ptr %this.addr, align 8
  call void @llvm.lifetime.start.p0(i64 8, ptr %k) #13
  call void @llvm.lifetime.start.p0(i64 8, ptr %ref.tmp) #13
  store double 0x3EB0C6F7A0B5ED8D, ptr %ref.tmp, align 8, !tbaa !14
  %call = call noundef nonnull align 8 dereferenceable(8) ptr @_ZSt3maxIdERKT_S2_S2_(ptr noundef nonnull align 8 dereferenceable(8) %strike.addr, ptr noundef nonnull align 8 dereferenceable(8) %ref.tmp)
  %0 = load double, ptr %call, align 8, !tbaa !14
  %forward_ = getelementptr inbounds nuw %"class.QuantLib::SviSmileSection", ptr %this1, i32 0, i32 1
  %1 = load double, ptr %forward_, align 8, !tbaa !16
  %div = fdiv double %0, %1
  %call2 = call double @log(double noundef %div) #13, !tbaa !32
  call void @llvm.lifetime.end.p0(i64 8, ptr %ref.tmp) #13
  store double %call2, ptr %k, align 8, !tbaa !14
  call void @llvm.lifetime.start.p0(i64 8, ptr %totalVariance) #13
  %params_ = getelementptr inbounds nuw %"class.QuantLib::SviSmileSection", ptr %this1, i32 0, i32 2
  %call3 = call noundef nonnull align 8 dereferenceable(8) ptr @_ZNKSt6vectorIdSaIdEEixEm(ptr noundef nonnull align 8 dereferenceable(24) %params_, i64 noundef 0) #13
  %2 = load double, ptr %call3, align 8, !tbaa !14
  %params_4 = getelementptr inbounds nuw %"class.QuantLib::SviSmileSection", ptr %this1, i32 0, i32 2
  %call5 = call noundef nonnull align 8 dereferenceable(8) ptr @_ZNKSt6vectorIdSaIdEEixEm(ptr noundef nonnull align 8 dereferenceable(24) %params_4, i64 noundef 1) #13
  %3 = load double, ptr %call5, align 8, !tbaa !14
  %params_6 = getelementptr inbounds nuw %"class.QuantLib::SviSmileSection", ptr %this1, i32 0, i32 2
  %call7 = call noundef nonnull align 8 dereferenceable(8) ptr @_ZNKSt6vectorIdSaIdEEixEm(ptr noundef nonnull align 8 dereferenceable(24) %params_6, i64 noundef 2) #13
  %4 = load double, ptr %call7, align 8, !tbaa !14
  %params_8 = getelementptr inbounds nuw %"class.QuantLib::SviSmileSection", ptr %this1, i32 0, i32 2
  %call9 = call noundef nonnull align 8 dereferenceable(8) ptr @_ZNKSt6vectorIdSaIdEEixEm(ptr noundef nonnull align 8 dereferenceable(24) %params_8, i64 noundef 3) #13
  %5 = load double, ptr %call9, align 8, !tbaa !14
  %params_10 = getelementptr inbounds nuw %"class.QuantLib::SviSmileSection", ptr %this1, i32 0, i32 2
  %call11 = call noundef nonnull align 8 dereferenceable(8) ptr @_ZNKSt6vectorIdSaIdEEixEm(ptr noundef nonnull align 8 dereferenceable(24) %params_10, i64 noundef 4) #13
  %6 = load double, ptr %call11, align 8, !tbaa !14
  %7 = load double, ptr %k, align 8, !tbaa !14
  %call12 = call noundef double @_ZN8QuantLib6detail16sviTotalVarianceEdddddd(double noundef %2, double noundef %3, double noundef %4, double noundef %5, double noundef %6, double noundef %7)
  store double %call12, ptr %totalVariance, align 8, !tbaa !14
  call void @llvm.lifetime.start.p0(i64 8, ptr %ref.tmp13) #13
  store double 0.000000e+00, ptr %ref.tmp13, align 8, !tbaa !14
  call void @llvm.lifetime.start.p0(i64 8, ptr %ref.tmp14) #13
  %8 = load double, ptr %totalVariance, align 8, !tbaa !14
  %vtable = load ptr, ptr %this1, align 8, !tbaa !12
  %vfn = getelementptr inbounds ptr, ptr %vtable, i64 10
  %9 = load ptr, ptr %vfn, align 8
  %call15 = call noundef double %9(ptr noundef nonnull align 8 dereferenceable(72) %this1)
  %div16 = fdiv double %8, %call15
  store double %div16, ptr %ref.tmp14, align 8, !tbaa !14
  %call17 = call noundef nonnull align 8 dereferenceable(8) ptr @_ZSt3maxIdERKT_S2_S2_(ptr noundef nonnull align 8 dereferenceable(8) %ref.tmp13, ptr noundef nonnull align 8 dereferenceable(8) %ref.tmp14)
  %10 = load double, ptr %call17, align 8, !tbaa !14
  %call18 = call double @sqrt(double noundef %10) #13, !tbaa !32
  call void @llvm.lifetime.end.p0(i64 8, ptr %ref.tmp14) #13
  call void @llvm.lifetime.end.p0(i64 8, ptr %ref.tmp13) #13
  call void @llvm.lifetime.end.p0(i64 8, ptr %totalVariance) #13
  call void @llvm.lifetime.end.p0(i64 8, ptr %k) #13
  ret double %call18
}