; Function Attrs: mustprogress uwtable
define noundef double @_ZNK8QuantLib15SviSmileSection14volatilityImplEd(ptr noundef nonnull align 8 dereferenceable(104) %this, double noundef %strike) unnamed_addr #6 align 2 {
entry:
  %cmp.i = fcmp olt double %strike, 0x3EB0C6F7A0B5ED8D
  %.sroa.speculated6 = select i1 %cmp.i, double 0x3EB0C6F7A0B5ED8D, double %strike
  %forward_ = getelementptr inbounds nuw i8, ptr %this, i64 72
  %0 = load double, ptr %forward_, align 8, !tbaa !39
  %div = fdiv double %.sroa.speculated6, %0
  %call2 = tail call double @log(double noundef %div) #25, !tbaa !56
  %params_ = getelementptr inbounds nuw i8, ptr %this, i64 80
  %1 = load ptr, ptr %params_, align 8, !tbaa !51
  %2 = load double, ptr %1, align 8, !tbaa !54
  %add.ptr.i = getelementptr inbounds nuw i8, ptr %1, i64 8
  %3 = load double, ptr %add.ptr.i, align 8, !tbaa !54
  %add.ptr.i1 = getelementptr inbounds nuw i8, ptr %1, i64 16
  %4 = load double, ptr %add.ptr.i1, align 8, !tbaa !54
  %add.ptr.i2 = getelementptr inbounds nuw i8, ptr %1, i64 24
  %5 = load double, ptr %add.ptr.i2, align 8, !tbaa !54
  %add.ptr.i3 = getelementptr inbounds nuw i8, ptr %1, i64 32
  %6 = load double, ptr %add.ptr.i3, align 8, !tbaa !54
  %sub.i = fsub double %call2, %6
  %mul4.i = fmul double %4, %4
  %7 = tail call double @llvm.fmuladd.f64(double %sub.i, double %sub.i, double %mul4.i)
  %sqrt.i = tail call double @llvm.sqrt.f64(double %7)
  %8 = tail call double @llvm.fmuladd.f64(double %5, double %sub.i, double %sqrt.i)
  %9 = tail call noundef double @llvm.fmuladd.f64(double %3, double %8, double %2)
  %vtable = load ptr, ptr %this, align 8, !tbaa !35
  %vfn = getelementptr inbounds i8, ptr %vtable, i64 80
  %10 = load ptr, ptr %vfn, align 8
  %call15 = tail call noundef double %10(ptr noundef nonnull align 8 dereferenceable(72) %this)
  %div16 = fdiv double %9, %call15
  %cmp.i4 = fcmp ogt double %div16, 0.000000e+00
  %.sroa.speculated = select i1 %cmp.i4, double %div16, double 0.000000e+00
  %sqrt = tail call double @llvm.sqrt.f64(double %.sroa.speculated)
  ret double %sqrt
}